target datalayout = "e-m:e-p270:32:32-p271:32:32-p272:64:64-i64:64-i128:128-f80:128-n8:16:32:64-S128"
target triple = "x86_64-pc-linux-gnu"

%struct.anon.2 = type { ptr, ptr, i32 }

@.str.12 = private unnamed_addr constant [32 x i8] c"../openssl/test/property_test.c\00", align 1
@.str.70 = private unnamed_addr constant [36 x i8] c"store = ossl_method_store_new(NULL)\00", align 1
@.str.187 = private unnamed_addr constant [6 x i8] c"alpha\00", align 1
@.str.188 = private unnamed_addr constant [6 x i8] c"omega\00", align 1
@.str.189 = private unnamed_addr constant [56 x i8] c"d = ossl_parse_property(NULL, definition_tests[n].defn)\00", align 1
@.str.190 = private unnamed_addr constant [57 x i8] c"q = ossl_parse_query(NULL, definition_tests[n].query, 0)\00", align 1
@.str.191 = private unnamed_addr constant [32 x i8] c"ossl_property_match_count(q, d)\00", align 1
@.str.192 = private unnamed_addr constant [22 x i8] c"definition_tests[n].e\00", align 1

; Function Attrs: nounwind uwtable
define internal i32 @test_definition_compares(i32 noundef %0) #0 {
  %2 = alloca i32, align 4
  %3 = alloca ptr, align 8
  %4 = alloca ptr, align 8
  %5 = alloca ptr, align 8
  %6 = alloca i32, align 4
  store i32 %0, ptr %2, align 4, !tbaa !9
  call void @llvm.lifetime.start.p0(i64 8, ptr %3) #6
  call void @llvm.lifetime.start.p0(i64 8, ptr %4) #6
  store ptr null, ptr %4, align 8, !tbaa !13
  call void @llvm.lifetime.start.p0(i64 8, ptr %5) #6
  store ptr null, ptr %5, align 8, !tbaa !13
  call void @llvm.lifetime.start.p0(i64 4, ptr %6) #6
  %7 = call ptr @ossl_method_store_new(ptr noundef null)
  store ptr %7, ptr %3, align 8, !tbaa !4
  %8 = call i32 @test_ptr(ptr noundef @.str.12, i32 noundef 359, ptr noundef @.str.70, ptr noundef %7)
  %9 = icmp ne i32 %8, 0
  br i1 %9, label %10, label %42

10:                                               ; preds = %1
  %11 = call i32 (ptr, ...) @add_property_names(ptr noundef @.str.187, ptr noundef @.str.188, ptr noundef null)
  %12 = icmp ne i32 %11, 0
  br i1 %12, label %13, label %42

13:                                               ; preds = %10
  %14 = load i32, ptr %2, align 4, !tbaa !9
  %15 = sext i32 %14 to i64
  %16 = getelementptr inbounds [11 x %struct.anon.2], ptr @definition_tests, i64 0, i64 %15
  %17 = getelementptr inbounds nuw %struct.anon.2, ptr %16, i32 0, i32 0
  %18 = load ptr, ptr %17, align 8, !tbaa !15
  %19 = call ptr @ossl_parse_property(ptr noundef null, ptr noundef %18)
  store ptr %19, ptr %4, align 8, !tbaa !13
  %20 = call i32 @test_ptr(ptr noundef @.str.12, i32 noundef 361, ptr noundef @.str.189, ptr noundef %19)
  %21 = icmp ne i32 %20, 0
  br i1 %21, label %22, label %42

22:                                               ; preds = %13
  %23 = load i32, ptr %2, align 4, !tbaa !9
  %24 = sext i32 %23 to i64
  %25 = getelementptr inbounds [11 x %struct.anon.2], ptr @definition_tests, i64 0, i64 %24
  %26 = getelementptr inbounds nuw %struct.anon.2, ptr %25, i32 0, i32 1
  %27 = load ptr, ptr %26, align 8, !tbaa !18
  %28 = call ptr @ossl_parse_query(ptr noundef null, ptr noundef %27, i32 noundef 0)
  store ptr %28, ptr %5, align 8, !tbaa !13
  %29 = call i32 @test_ptr(ptr noundef @.str.12, i32 noundef 362, ptr noundef @.str.190, ptr noundef %28)
  %30 = icmp ne i32 %29, 0
  br i1 %30, label %31, label %42

31:                                               ; preds = %22
  %32 = load ptr, ptr %5, align 8, !tbaa !13
  %33 = load ptr, ptr %4, align 8, !tbaa !13
  %34 = call i32 @ossl_property_match_count(ptr noundef %32, ptr noundef %33)
  %35 = load i32, ptr %2, align 4, !tbaa !9
  %36 = sext i32 %35 to i64
  %37 = getelementptr inbounds [11 x %struct.anon.2], ptr @definition_tests, i64 0, i64 %36
  %38 = getelementptr inbounds nuw %struct.anon.2, ptr %37, i32 0, i32 2
  %39 = load i32, ptr %38, align 8, !tbaa !19
  %40 = call i32 @test_int_eq(ptr noundef @.str.12, i32 noundef 363, ptr noundef @.str.191, ptr noundef @.str.192, i32 noundef %34, i32 noundef %39)
  %41 = icmp ne i32 %40, 0
  br label %42

42:                                               ; preds = %31, %22, %13, %10, %1
  %43 = phi i1 [ false, %22 ], [ false, %13 ], [ false, %10 ], [ false, %1 ], [ %41, %31 ]
  %44 = zext i1 %43 to i32
  store i32 %44, ptr %6, align 4, !tbaa !9
  %45 = load ptr, ptr %4, align 8, !tbaa !13
  call void @ossl_property_free(ptr noundef %45)
  %46 = load ptr, ptr %5, align 8, !tbaa !13
  call void @ossl_property_free(ptr noundef %46)
  %47 = load ptr, ptr %3, align 8, !tbaa !4
  call void @ossl_method_store_free(ptr noundef %47)
  %48 = load i32, ptr %6, align 4, !tbaa !9
  call void @llvm.lifetime.end.p0(i64 4, ptr %6) #6
  call void @llvm.lifetime.end.p0(i64 8, ptr %5) #6
  call void @llvm.lifetime.end.p0(i64 8, ptr %4) #6
  call void @llvm.lifetime.end.p0(i64 8, ptr %3) #6
  ret i32 %48
}